; Function Attrs: mustprogress uwtable
define void @_ZNK32pxrInternal_v0_24__pxrReserved__36HdDataSourceMaterialNetworkInterface19GetNodeTypeInfoKeysERKNS_7TfTokenE(ptr dead_on_unwind noalias writable sret(%"class.std::vector") align 8 %0, ptr noundef nonnull align 8 dereferenceable(560) %1, ptr noundef nonnull align 8 dereferenceable(8) %2) unnamed_addr #0 align 2 personality ptr @__gxx_personality_v0 {
  %4 = alloca %"class.std::shared_ptr", align 8
  call void @_ZNK32pxrInternal_v0_24__pxrReserved__36HdDataSourceMaterialNetworkInterface16_GetNodeTypeInfoERKNS_7TfTokenE(ptr dead_on_unwind nonnull writable sret(%"class.std::shared_ptr") align 8 %4, ptr noundef nonnull align 8 dereferenceable(560) %1, ptr noundef nonnull align 8 dereferenceable(8) %2)
  %5 = load ptr, ptr %4, align 8
  %.not = icmp eq ptr %5, null
  br i1 %.not, label %6, label %7

6:                                                ; preds = %3
  call void @llvm.memset.p0.i64(ptr noundef nonnull align 8 dereferenceable(24) %0, i8 0, i64 24, i1 false)
  br label %13

7:                                                ; preds = %3
  %8 = load ptr, ptr %5, align 8
  %9 = getelementptr inbounds nuw i8, ptr %8, i64 16
  %10 = load ptr, ptr %9, align 8
  invoke void %10(ptr dead_on_unwind writable sret(%"class.std::vector") align 8 %0, ptr noundef nonnull align 8 dereferenceable(8) %5)
          to label %13 unwind label %11

11:                                               ; preds = %7
  %12 = landingpad { ptr, i32 }
          cleanup
  call void @_ZNSt10shared_ptrIN32pxrInternal_v0_24__pxrReserved__21HdContainerDataSourceEED2Ev(ptr noundef nonnull align 8 dereferenceable(16) %4) #19
  resume { ptr, i32 } %12

13:                                               ; preds = %7, %6
  %14 = getelementptr inbounds nuw i8, ptr %4, i64 8
  %15 = load ptr, ptr %14, align 8
  %.not.i.i.i = icmp eq ptr %15, null
  br i1 %.not.i.i.i, label %_ZNSt10shared_ptrIN32pxrInternal_v0_24__pxrReserved__21HdContainerDataSourceEED2Ev.exit, label %16

16:                                               ; preds = %13
  %17 = getelementptr inbounds nuw i8, ptr %15, i64 8
  %18 = load atomic i64, ptr %17 acquire, align 8
  %19 = icmp eq i64 %18, 4294967297
  %20 = trunc i64 %18 to i32
  br i1 %19, label %21, label %26

21:                                               ; preds = %16
  store i32 0, ptr %17, align 8
  %22 = getelementptr inbounds nuw i8, ptr %15, i64 12
  store i32 0, ptr %22, align 4
  %23 = load ptr, ptr %15, align 8
  %24 = getelementptr inbounds nuw i8, ptr %23, i64 16
  %25 = load ptr, ptr %24, align 8
  call void %25(ptr noundef nonnull align 8 dereferenceable(16) %15) #19
  br label %_ZNSt16_Sp_counted_baseILN9__gnu_cxx12_Lock_policyE2EE24_M_release_last_use_coldEv.exit.sink.split.i.i.i.i

26:                                               ; preds = %16
  %27 = load i8, ptr @__libc_single_threaded, align 1
  %.not.i.i.i.i = icmp eq i8 %27, 0
  br i1 %.not.i.i.i.i, label %30, label %28

28:                                               ; preds = %26
  %29 = add nsw i32 %20, -1
  store i32 %29, ptr %17, align 4
  br label %32

30:                                               ; preds = %26
  %31 = atomicrmw volatile add ptr %17, i32 -1 acq_rel, align 4
  br label %32

32:                                               ; preds = %30, %28
  %.0.i.i.i.i = phi i32 [ %20, %28 ], [ %31, %30 ]
  %33 = icmp eq i32 %.0.i.i.i.i, 1
  br i1 %33, label %34, label %_ZNSt10shared_ptrIN32pxrInternal_v0_24__pxrReserved__21HdContainerDataSourceEED2Ev.exit

34:                                               ; preds = %32
  %35 = load ptr, ptr %15, align 8
  %36 = getelementptr inbounds nuw i8, ptr %35, i64 16
  %37 = load ptr, ptr %36, align 8
  call void %37(ptr noundef nonnull align 8 dereferenceable(16) %15) #19
  %38 = getelementptr inbounds nuw i8, ptr %15, i64 12
  %39 = load i8, ptr @__libc_single_threaded, align 1
  %.not.i.i.i.i.i.i = icmp eq i8 %39, 0
  br i1 %.not.i.i.i.i.i.i, label %43, label %40

40:                                               ; preds = %34
  %41 = load i32, ptr %38, align 4
  %42 = add nsw i32 %41, -1
  store i32 %42, ptr %38, align 4
  br label %45

43:                                               ; preds = %34
  %44 = atomicrmw volatile add ptr %38, i32 -1 acq_rel, align 4
  br label %45

45:                                               ; preds = %43, %40
  %.0.i.i.i.i.i.i = phi i32 [ %41, %40 ], [ %44, %43 ]
  %46 = icmp eq i32 %.0.i.i.i.i.i.i, 1
  br i1 %46, label %_ZNSt16_Sp_counted_baseILN9__gnu_cxx12_Lock_policyE2EE24_M_release_last_use_coldEv.exit.sink.split.i.i.i.i, label %_ZNSt10shared_ptrIN32pxrInternal_v0_24__pxrReserved__21HdContainerDataSourceEED2Ev.exit

_ZNSt16_Sp_counted_baseILN9__gnu_cxx12_Lock_policyE2EE24_M_release_last_use_coldEv.exit.sink.split.i.i.i.i: ; preds = %45, %21
  %47 = load ptr, ptr %15, align 8
  %48 = getelementptr inbounds nuw i8, ptr %47, i64 24
  %49 = load ptr, ptr %48, align 8
  call void %49(ptr noundef nonnull align 8 dereferenceable(16) %15) #19
  br label %_ZNSt10shared_ptrIN32pxrInternal_v0_24__pxrReserved__21HdContainerDataSourceEED2Ev.exit

_ZNSt10shared_ptrIN32pxrInternal_v0_24__pxrReserved__21HdContainerDataSourceEED2Ev.exit: ; preds = %13, %32, %45, %_ZNSt16_Sp_counted_baseILN9__gnu_cxx12_Lock_policyE2EE24_M_release_last_use_coldEv.exit.sink.split.i.i.i.i
  ret void
}